; Function Attrs: nounwind uwtable
define internal range(i32 0, 2) i32 @newreno_set_input_params(ptr noundef captures(none) %0, ptr noundef %1) #0 {
  %3 = alloca i64, align 8
  call void @llvm.lifetime.start.p0(i64 8, ptr nonnull %3) #8
  %4 = tail call ptr @OSSL_PARAM_locate_const(ptr noundef %1, ptr noundef nonnull @.str.1) #8
  %.not = icmp eq ptr %4, null
  br i1 %.not, label %newreno_set_max_dgram_size.exit, label %5

5:                                                ; preds = %2
  %6 = call i32 @OSSL_PARAM_get_size_t(ptr noundef nonnull %4, ptr noundef nonnull %3) #8
  %.not7 = icmp eq i32 %6, 0
  br i1 %.not7, label %newreno_set_max_dgram_size.exit, label %7

7:                                                ; preds = %5
  %8 = load i64, ptr %3, align 8, !tbaa !19
  %9 = icmp ult i64 %8, 1200
  br i1 %9, label %newreno_set_max_dgram_size.exit, label %10

10:                                               ; preds = %7
  %11 = getelementptr inbounds nuw i8, ptr %0, i64 48
  %12 = load i64, ptr %11, align 8, !tbaa !14
  %13 = icmp ult i64 %8, %12
  store i64 %8, ptr %11, align 8, !tbaa !14
  %14 = shl i64 %8, 1
  %spec.store.select.i = call i64 @llvm.umax.i64(i64 %14, i64 14720)
  %15 = mul i64 %8, 10
  %16 = getelementptr inbounds nuw i8, ptr %0, i64 16
  %spec.select.i = call i64 @llvm.umin.i64(i64 %15, i64 %spec.store.select.i)
  store i64 %spec.select.i, ptr %16, align 8, !tbaa !15
  %17 = getelementptr inbounds nuw i8, ptr %0, i64 24
  store i64 %14, ptr %17, align 8, !tbaa !16
  br i1 %13, label %18, label %20

18:                                               ; preds = %10
  %19 = getelementptr inbounds nuw i8, ptr %0, i64 64
  store i64 %spec.select.i, ptr %19, align 8, !tbaa !17
  br label %20

20:                                               ; preds = %18, %10
  %21 = getelementptr inbounds nuw i8, ptr %0, i64 120
  %22 = load ptr, ptr %21, align 8, !tbaa !18
  %.not.i.i = icmp eq ptr %22, null
  br i1 %.not.i.i, label %24, label %23

23:                                               ; preds = %20
  store i64 %8, ptr %22, align 8, !tbaa !19
  br label %24

24:                                               ; preds = %23, %20
  %25 = getelementptr inbounds nuw i8, ptr %0, i64 128
  %26 = load ptr, ptr %25, align 8, !tbaa !20
  %.not23.i.i = icmp eq ptr %26, null
  br i1 %.not23.i.i, label %30, label %27

27:                                               ; preds = %24
  %28 = getelementptr inbounds nuw i8, ptr %0, i64 64
  %29 = load i64, ptr %28, align 8, !tbaa !17
  store i64 %29, ptr %26, align 8, !tbaa !19
  br label %30

30:                                               ; preds = %27, %24
  %31 = getelementptr inbounds nuw i8, ptr %0, i64 136
  %32 = load ptr, ptr %31, align 8, !tbaa !21
  %.not24.i.i = icmp eq ptr %32, null
  br i1 %.not24.i.i, label %35, label %33

33:                                               ; preds = %30
  %34 = load i64, ptr %17, align 8, !tbaa !16
  store i64 %34, ptr %32, align 8, !tbaa !19
  br label %35

35:                                               ; preds = %33, %30
  %36 = getelementptr inbounds nuw i8, ptr %0, i64 144
  %37 = load ptr, ptr %36, align 8, !tbaa !22
  %.not25.i.i = icmp eq ptr %37, null
  br i1 %.not25.i.i, label %41, label %38

38:                                               ; preds = %35
  %39 = getelementptr inbounds nuw i8, ptr %0, i64 56
  %40 = load i64, ptr %39, align 8, !tbaa !23
  store i64 %40, ptr %37, align 8, !tbaa !19
  br label %41

41:                                               ; preds = %38, %35
  %42 = getelementptr inbounds nuw i8, ptr %0, i64 152
  %43 = load ptr, ptr %42, align 8, !tbaa !24
  %.not26.i.i = icmp eq ptr %43, null
  br i1 %.not26.i.i, label %newreno_set_max_dgram_size.exit, label %44

44:                                               ; preds = %41
  %45 = getelementptr inbounds nuw i8, ptr %0, i64 112
  %46 = load i32, ptr %45, align 8, !tbaa !25
  %.not27.i.i = icmp eq i32 %46, 0
  br i1 %.not27.i.i, label %47, label %.sink.split.i.i

47:                                               ; preds = %44
  %48 = getelementptr inbounds nuw i8, ptr %0, i64 64
  %49 = load i64, ptr %48, align 8, !tbaa !17
  %50 = getelementptr inbounds nuw i8, ptr %0, i64 72
  %51 = load i64, ptr %50, align 8, !tbaa !26
  %52 = icmp ult i64 %49, %51
  %..i.i = select i1 %52, i32 83, i32 65
  br label %.sink.split.i.i

.sink.split.i.i:                                  ; preds = %47, %44
  %.sink.i.i = phi i32 [ 82, %44 ], [ %..i.i, %47 ]
  store i32 %.sink.i.i, ptr %43, align 4, !tbaa !27
  br label %newreno_set_max_dgram_size.exit

newreno_set_max_dgram_size.exit:                  ; preds = %.sink.split.i.i, %41, %2, %7, %5
  %.0 = phi i32 [ 0, %5 ], [ 0, %7 ], [ 1, %2 ], [ 1, %41 ], [ 1, %.sink.split.i.i ]
  call void @llvm.lifetime.end.p0(i64 8, ptr nonnull %3) #8
  ret i32 %.0
}